target datalayout = "e-m:e-p270:32:32-p271:32:32-p272:64:64-i64:64-i128:128-f80:128-n8:16:32:64-S128"
target triple = "x86_64-pc-linux-gnu"

%struct.WordEntryIN = type { %struct.WordEntry, ptr, i32 }
%struct.WordEntry = type { i32 }

; Function Attrs: nounwind uwtable
define internal i32 @compareentry(ptr noundef %0, ptr noundef %1, ptr noundef %2) #0 {
  %4 = alloca ptr, align 8
  %5 = alloca ptr, align 8
  %6 = alloca ptr, align 8
  %7 = alloca ptr, align 8
  %8 = alloca ptr, align 8
  %9 = alloca ptr, align 8
  store ptr %0, ptr %4, align 8
  store ptr %1, ptr %5, align 8
  store ptr %2, ptr %6, align 8
  call void @llvm.lifetime.start.p0(i64 8, ptr %7) #8
  %10 = load ptr, ptr %4, align 8
  store ptr %10, ptr %7, align 8
  call void @llvm.lifetime.start.p0(i64 8, ptr %8) #8
  %11 = load ptr, ptr %5, align 8
  store ptr %11, ptr %8, align 8
  call void @llvm.lifetime.start.p0(i64 8, ptr %9) #8
  %12 = load ptr, ptr %6, align 8
  store ptr %12, ptr %9, align 8
  %13 = load ptr, ptr %9, align 8
  %14 = load ptr, ptr %7, align 8
  %15 = getelementptr inbounds nuw %struct.WordEntryIN, ptr %14, i32 0, i32 0
  %16 = load i32, ptr %15, align 8
  %17 = lshr i32 %16, 12
  %18 = zext i32 %17 to i64
  %19 = getelementptr inbounds nuw i8, ptr %13, i64 %18
  %20 = load ptr, ptr %7, align 8
  %21 = getelementptr inbounds nuw %struct.WordEntryIN, ptr %20, i32 0, i32 0
  %22 = load i32, ptr %21, align 8
  %23 = lshr i32 %22, 1
  %24 = and i32 %23, 2047
  %25 = load ptr, ptr %9, align 8
  %26 = load ptr, ptr %8, align 8
  %27 = getelementptr inbounds nuw %struct.WordEntryIN, ptr %26, i32 0, i32 0
  %28 = load i32, ptr %27, align 8
  %29 = lshr i32 %28, 12
  %30 = zext i32 %29 to i64
  %31 = getelementptr inbounds nuw i8, ptr %25, i64 %30
  %32 = load ptr, ptr %8, align 8
  %33 = getelementptr inbounds nuw %struct.WordEntryIN, ptr %32, i32 0, i32 0
  %34 = load i32, ptr %33, align 8
  %35 = lshr i32 %34, 1
  %36 = and i32 %35, 2047
  %37 = call i32 @tsCompareString(ptr noundef %19, i32 noundef %24, ptr noundef %31, i32 noundef %36, i1 noundef zeroext false)
  call void @llvm.lifetime.end.p0(i64 8, ptr %9) #8
  call void @llvm.lifetime.end.p0(i64 8, ptr %8) #8
  call void @llvm.lifetime.end.p0(i64 8, ptr %7) #8
  ret i32 %37
}