; Function Attrs: nounwind uwtable
define internal i32 @compareentry(ptr noundef readonly captures(none) %0, ptr noundef readonly captures(none) %1, ptr noundef %2) #2 {
  %4 = load i32, ptr %0, align 8
  %5 = lshr i32 %4, 12
  %6 = zext nneg i32 %5 to i64
  %7 = getelementptr inbounds nuw i8, ptr %2, i64 %6
  %8 = lshr i32 %4, 1
  %9 = and i32 %8, 2047
  %10 = load i32, ptr %1, align 8
  %11 = lshr i32 %10, 12
  %12 = zext nneg i32 %11 to i64
  %13 = getelementptr inbounds nuw i8, ptr %2, i64 %12
  %14 = lshr i32 %10, 1
  %15 = and i32 %14, 2047
  %16 = tail call i32 @tsCompareString(ptr noundef %7, i32 noundef %9, ptr noundef %13, i32 noundef %15, i1 noundef zeroext false) #11
  ret i32 %16
}